target datalayout = "e-m:e-p270:32:32-p271:32:32-p272:64:64-i64:64-i128:128-f80:128-n8:16:32:64-S128"
target triple = "x86_64-pc-linux-gnu"

; Function Attrs: nounwind uwtable
define internal i32 @VP8Clip8(i32 noundef %0) #0 {
  %2 = alloca i32, align 4
  store i32 %0, ptr %2, align 4
  %3 = load i32, ptr %2, align 4
  %4 = and i32 %3, -16384
  %5 = icmp eq i32 %4, 0
  br i1 %5, label %6, label %9

6:                                                ; preds = %1
  %7 = load i32, ptr %2, align 4
  %8 = ashr i32 %7, 6
  br label %13

9:                                                ; preds = %1
  %10 = load i32, ptr %2, align 4
  %11 = icmp slt i32 %10, 0
  %12 = select i1 %11, i32 0, i32 255
  br label %13

13:                                               ; preds = %9, %6
  %14 = phi i32 [ %8, %6 ], [ %12, %9 ]
  ret i32 %14
}

; Function Attrs: nounwind uwtable
define internal i32 @MultHi(i32 noundef %0, i32 noundef %1) #0 {
  %3 = alloca i32, align 4
  %4 = alloca i32, align 4
  store i32 %0, ptr %3, align 4
  store i32 %1, ptr %4, align 4
  %5 = load i32, ptr %3, align 4
  %6 = load i32, ptr %4, align 4
  %7 = mul nsw i32 %5, %6
  %8 = ashr i32 %7, 8
  ret i32 %8
}

; Function Attrs: nounwind uwtable
define internal i32 @VP8YUVToB(i32 noundef %0, i32 noundef %1) #0 {
  %3 = alloca i32, align 4
  %4 = alloca i32, align 4
  store i32 %0, ptr %3, align 4
  store i32 %1, ptr %4, align 4
  %5 = load i32, ptr %3, align 4
  %6 = call i32 @MultHi(i32 noundef %5, i32 noundef 19077)
  %7 = load i32, ptr %4, align 4
  %8 = call i32 @MultHi(i32 noundef %7, i32 noundef 33050)
  %9 = add nsw i32 %6, %8
  %10 = sub nsw i32 %9, 17685
  %11 = call i32 @VP8Clip8(i32 noundef %10)
  ret i32 %11
}

; Function Attrs: nounwind uwtable
define internal i32 @VP8YUVToG(i32 noundef %0, i32 noundef %1, i32 noundef %2) #0 {
  %4 = alloca i32, align 4
  %5 = alloca i32, align 4
  %6 = alloca i32, align 4
  store i32 %0, ptr %4, align 4
  store i32 %1, ptr %5, align 4
  store i32 %2, ptr %6, align 4
  %7 = load i32, ptr %4, align 4
  %8 = call i32 @MultHi(i32 noundef %7, i32 noundef 19077)
  %9 = load i32, ptr %5, align 4
  %10 = call i32 @MultHi(i32 noundef %9, i32 noundef 6419)
  %11 = sub nsw i32 %8, %10
  %12 = load i32, ptr %6, align 4
  %13 = call i32 @MultHi(i32 noundef %12, i32 noundef 13320)
  %14 = sub nsw i32 %11, %13
  %15 = add nsw i32 %14, 8708
  %16 = call i32 @VP8Clip8(i32 noundef %15)
  ret i32 %16
}

; Function Attrs: nounwind uwtable
define internal i32 @VP8YUVToR(i32 noundef %0, i32 noundef %1) #0 {
  %3 = alloca i32, align 4
  %4 = alloca i32, align 4
  store i32 %0, ptr %3, align 4
  store i32 %1, ptr %4, align 4
  %5 = load i32, ptr %3, align 4
  %6 = call i32 @MultHi(i32 noundef %5, i32 noundef 19077)
  %7 = load i32, ptr %4, align 4
  %8 = call i32 @MultHi(i32 noundef %7, i32 noundef 26149)
  %9 = add nsw i32 %6, %8
  %10 = sub nsw i32 %9, 14234
  %11 = call i32 @VP8Clip8(i32 noundef %10)
  ret i32 %11
}

; Function Attrs: nounwind uwtable
define internal void @VP8YuvToRgba4444(i32 noundef %0, i32 noundef %1, i32 noundef %2, ptr noundef %3) #0 {
  %5 = alloca i32, align 4
  %6 = alloca i32, align 4
  %7 = alloca i32, align 4
  %8 = alloca ptr, align 8
  %9 = alloca i32, align 4
  %10 = alloca i32, align 4
  %11 = alloca i32, align 4
  %12 = alloca i32, align 4
  %13 = alloca i32, align 4
  store i32 %0, ptr %5, align 4
  store i32 %1, ptr %6, align 4
  store i32 %2, ptr %7, align 4
  store ptr %3, ptr %8, align 8
  %14 = load i32, ptr %5, align 4
  %15 = load i32, ptr %7, align 4
  %16 = call i32 @VP8YUVToR(i32 noundef %14, i32 noundef %15)
  store i32 %16, ptr %9, align 4
  %17 = load i32, ptr %5, align 4
  %18 = load i32, ptr %6, align 4
  %19 = load i32, ptr %7, align 4
  %20 = call i32 @VP8YUVToG(i32 noundef %17, i32 noundef %18, i32 noundef %19)
  store i32 %20, ptr %10, align 4
  %21 = load i32, ptr %5, align 4
  %22 = load i32, ptr %6, align 4
  %23 = call i32 @VP8YUVToB(i32 noundef %21, i32 noundef %22)
  store i32 %23, ptr %11, align 4
  %24 = load i32, ptr %9, align 4
  %25 = and i32 %24, 240
  %26 = load i32, ptr %10, align 4
  %27 = ashr i32 %26, 4
  %28 = or i32 %25, %27
  store i32 %28, ptr %12, align 4
  %29 = load i32, ptr %11, align 4
  %30 = and i32 %29, 240
  %31 = or i32 %30, 15
  store i32 %31, ptr %13, align 4
  %32 = load i32, ptr %12, align 4
  %33 = trunc i32 %32 to i8
  %34 = load ptr, ptr %8, align 8
  %35 = getelementptr inbounds i8, ptr %34, i64 0
  store i8 %33, ptr %35, align 1
  %36 = load i32, ptr %13, align 4
  %37 = trunc i32 %36 to i8
  %38 = load ptr, ptr %8, align 8
  %39 = getelementptr inbounds i8, ptr %38, i64 1
  store i8 %37, ptr %39, align 1
  ret void
}

; Function Attrs: nounwind uwtable
define hidden void @WebPYuv444ToRgba4444_C(ptr noundef %0, ptr noundef %1, ptr noundef %2, ptr noundef %3, i32 noundef %4) #0 {
  %6 = alloca ptr, align 8
  %7 = alloca ptr, align 8
  %8 = alloca ptr, align 8
  %9 = alloca ptr, align 8
  %10 = alloca i32, align 4
  %11 = alloca i32, align 4
  store ptr %0, ptr %6, align 8
  store ptr %1, ptr %7, align 8
  store ptr %2, ptr %8, align 8
  store ptr %3, ptr %9, align 8
  store i32 %4, ptr %10, align 4
  store i32 0, ptr %11, align 4
  br label %12

12:                                               ; preds = %40, %5
  %13 = load i32, ptr %11, align 4
  %14 = load i32, ptr %10, align 4
  %15 = icmp slt i32 %13, %14
  br i1 %15, label %16, label %43

16:                                               ; preds = %12
  %17 = load ptr, ptr %6, align 8
  %18 = load i32, ptr %11, align 4
  %19 = sext i32 %18 to i64
  %20 = getelementptr inbounds i8, ptr %17, i64 %19
  %21 = load i8, ptr %20, align 1
  %22 = zext i8 %21 to i32
  %23 = load ptr, ptr %7, align 8
  %24 = load i32, ptr %11, align 4
  %25 = sext i32 %24 to i64
  %26 = getelementptr inbounds i8, ptr %23, i64 %25
  %27 = load i8, ptr %26, align 1
  %28 = zext i8 %27 to i32
  %29 = load ptr, ptr %8, align 8
  %30 = load i32, ptr %11, align 4
  %31 = sext i32 %30 to i64
  %32 = getelementptr inbounds i8, ptr %29, i64 %31
  %33 = load i8, ptr %32, align 1
  %34 = zext i8 %33 to i32
  %35 = load ptr, ptr %9, align 8
  %36 = load i32, ptr %11, align 4
  %37 = mul nsw i32 %36, 2
  %38 = sext i32 %37 to i64
  %39 = getelementptr inbounds i8, ptr %35, i64 %38
  call void @VP8YuvToRgba4444(i32 noundef %22, i32 noundef %28, i32 noundef %34, ptr noundef %39)
  br label %40

40:                                               ; preds = %16
  %41 = load i32, ptr %11, align 4
  %42 = add nsw i32 %41, 1
  store i32 %42, ptr %11, align 4
  br label %12, !llvm.loop !10

43:                                               ; preds = %12
  ret void
}