; Function Attrs: nofree norecurse nosync nounwind memory(argmem: readwrite) uwtable
define hidden void @WebPYuv444ToRgba4444_C(ptr noundef readonly captures(none) %0, ptr noundef readonly captures(none) %1, ptr noundef readonly captures(none) %2, ptr noundef writeonly captures(none) %3, i32 noundef %4) #1 {
  %6 = icmp sgt i32 %4, 0
  br i1 %6, label %.lr.ph.preheader, label %._crit_edge

.lr.ph.preheader:                                 ; preds = %5
  %wide.trip.count = zext nneg i32 %4 to i64
  br label %.lr.ph

.lr.ph:                                           ; preds = %.lr.ph.preheader, %.lr.ph
  %indvars.iv = phi i64 [ 0, %.lr.ph.preheader ], [ %indvars.iv.next, %.lr.ph ]
  %7 = getelementptr inbounds nuw i8, ptr %0, i64 %indvars.iv
  %8 = load i8, ptr %7, align 1
  %9 = zext i8 %8 to i32
  %10 = getelementptr inbounds nuw i8, ptr %1, i64 %indvars.iv
  %11 = load i8, ptr %10, align 1
  %12 = zext i8 %11 to i32
  %13 = getelementptr inbounds nuw i8, ptr %2, i64 %indvars.iv
  %14 = load i8, ptr %13, align 1
  %15 = zext i8 %14 to i32
  %16 = shl nuw nsw i64 %indvars.iv, 1
  %17 = getelementptr inbounds nuw i8, ptr %3, i64 %16
  %18 = mul nuw nsw i32 %9, 19077
  %19 = lshr i32 %18, 8
  %20 = mul nuw nsw i32 %15, 26149
  %21 = lshr i32 %20, 8
  %22 = add nuw nsw i32 %21, %19
  %23 = add nsw i32 %22, -14234
  %24 = icmp ult i32 %23, 16384
  %25 = lshr i32 %23, 6
  %26 = icmp samesign ult i32 %22, 14234
  %27 = select i1 %26, i32 0, i32 240
  %28 = mul nuw nsw i32 %12, 6419
  %29 = lshr i32 %28, 8
  %30 = mul nuw nsw i32 %15, 13320
  %31 = lshr i32 %30, 8
  %32 = add nuw nsw i32 %29, %31
  %33 = sub nsw i32 %19, %32
  %34 = add nsw i32 %33, 8708
  %35 = icmp ult i32 %34, 16384
  %36 = lshr i32 %34, 10
  %37 = icmp slt i32 %33, -8708
  %38 = select i1 %37, i32 0, i32 15
  %39 = select i1 %35, i32 %36, i32 %38
  %40 = mul nuw nsw i32 %12, 33050
  %41 = lshr i32 %40, 8
  %42 = add nuw nsw i32 %41, %19
  %43 = add nsw i32 %42, -17685
  %44 = icmp ult i32 %43, 16384
  %45 = lshr i32 %43, 6
  %46 = icmp samesign ult i32 %42, 17685
  %47 = select i1 %46, i32 0, i32 240
  %48 = select i1 %44, i32 %45, i32 %47
  %49 = and i32 %25, 240
  %50 = select i1 %24, i32 %49, i32 %27
  %51 = or i32 %50, %39
  %52 = trunc i32 %51 to i8
  store i8 %52, ptr %17, align 1
  %53 = trunc i32 %48 to i8
  %54 = or i8 %53, 15
  %55 = getelementptr inbounds nuw i8, ptr %17, i64 1
  store i8 %54, ptr %55, align 1
  %indvars.iv.next = add nuw nsw i64 %indvars.iv, 1
  %exitcond.not = icmp eq i64 %indvars.iv.next, %wide.trip.count
  br i1 %exitcond.not, label %._crit_edge, label %.lr.ph, !llvm.loop !10

._crit_edge:                                      ; preds = %.lr.ph, %5
  ret void
}